target datalayout = "e-m:e-p270:32:32-p271:32:32-p272:64:64-i64:64-i128:128-f80:128-n8:16:32:64-S128"
target triple = "x86_64-pc-linux-gnu"

%struct.EVP_ARIA_KEY = type { %struct.aria_key_st }
%struct.aria_key_st = type { [17 x %union.ARIA_u128], i32 }
%union.ARIA_u128 = type { [4 x i32] }
%struct.evp_cipher_ctx_st = type { ptr, ptr, i32, i32, [16 x i8], [16 x i8], [32 x i8], i32, ptr, i32, i32, i64, ptr, i32, i32, [32 x i8], i64, ptr, ptr }

; Function Attrs: nounwind uwtable
define internal void @aria_cbc_encrypt(ptr noundef %0, ptr noundef %1, i64 noundef %2, ptr noundef %3, ptr noundef %4, i32 noundef %5) #0 {
  %7 = alloca ptr, align 8
  %8 = alloca ptr, align 8
  %9 = alloca i64, align 8
  %10 = alloca ptr, align 8
  %11 = alloca ptr, align 8
  %12 = alloca i32, align 4
  store ptr %0, ptr %7, align 8, !tbaa !8
  store ptr %1, ptr %8, align 8, !tbaa !8
  store i64 %2, ptr %9, align 8, !tbaa !12
  store ptr %3, ptr %10, align 8, !tbaa !16
  store ptr %4, ptr %11, align 8, !tbaa !8
  store i32 %5, ptr %12, align 4, !tbaa !10
  %13 = load i32, ptr %12, align 4, !tbaa !10
  %14 = icmp ne i32 %13, 0
  br i1 %14, label %15, label %21

15:                                               ; preds = %6
  %16 = load ptr, ptr %7, align 8, !tbaa !8
  %17 = load ptr, ptr %8, align 8, !tbaa !8
  %18 = load i64, ptr %9, align 8, !tbaa !12
  %19 = load ptr, ptr %10, align 8, !tbaa !16
  %20 = load ptr, ptr %11, align 8, !tbaa !8
  call void @CRYPTO_cbc128_encrypt(ptr noundef %16, ptr noundef %17, i64 noundef %18, ptr noundef %19, ptr noundef %20, ptr noundef @ossl_aria_encrypt)
  br label %27

21:                                               ; preds = %6
  %22 = load ptr, ptr %7, align 8, !tbaa !8
  %23 = load ptr, ptr %8, align 8, !tbaa !8
  %24 = load i64, ptr %9, align 8, !tbaa !12
  %25 = load ptr, ptr %10, align 8, !tbaa !16
  %26 = load ptr, ptr %11, align 8, !tbaa !8
  call void @CRYPTO_cbc128_decrypt(ptr noundef %22, ptr noundef %23, i64 noundef %24, ptr noundef %25, ptr noundef %26, ptr noundef @ossl_aria_encrypt)
  br label %27

27:                                               ; preds = %21, %15
  ret void
}

; Function Attrs: nounwind uwtable
define internal i32 @aria_128_cbc_cipher(ptr noundef %0, ptr noundef %1, ptr noundef %2, i64 noundef %3) #0 {
  %5 = alloca ptr, align 8
  %6 = alloca ptr, align 8
  %7 = alloca ptr, align 8
  %8 = alloca i64, align 8
  store ptr %0, ptr %5, align 8, !tbaa !3
  store ptr %1, ptr %6, align 8, !tbaa !8
  store ptr %2, ptr %7, align 8, !tbaa !8
  store i64 %3, ptr %8, align 8, !tbaa !12
  br label %9

9:                                                ; preds = %12, %4
  %10 = load i64, ptr %8, align 8, !tbaa !12
  %11 = icmp uge i64 %10, 1073741824
  br i1 %11, label %12, label %29

12:                                               ; preds = %9
  %13 = load ptr, ptr %7, align 8, !tbaa !8
  %14 = load ptr, ptr %6, align 8, !tbaa !8
  %15 = load ptr, ptr %5, align 8, !tbaa !3
  %16 = call ptr @EVP_CIPHER_CTX_get_cipher_data(ptr noundef %15)
  %17 = getelementptr inbounds nuw %struct.EVP_ARIA_KEY, ptr %16, i32 0, i32 0
  %18 = load ptr, ptr %5, align 8, !tbaa !3
  %19 = getelementptr inbounds nuw %struct.evp_cipher_ctx_st, ptr %18, i32 0, i32 5
  %20 = getelementptr inbounds [16 x i8], ptr %19, i64 0, i64 0
  %21 = load ptr, ptr %5, align 8, !tbaa !3
  %22 = call i32 @EVP_CIPHER_CTX_is_encrypting(ptr noundef %21)
  call void @aria_cbc_encrypt(ptr noundef %13, ptr noundef %14, i64 noundef 1073741824, ptr noundef %17, ptr noundef %20, i32 noundef %22)
  %23 = load i64, ptr %8, align 8, !tbaa !12
  %24 = sub i64 %23, 1073741824
  store i64 %24, ptr %8, align 8, !tbaa !12
  %25 = load ptr, ptr %7, align 8, !tbaa !8
  %26 = getelementptr inbounds nuw i8, ptr %25, i64 1073741824
  store ptr %26, ptr %7, align 8, !tbaa !8
  %27 = load ptr, ptr %6, align 8, !tbaa !8
  %28 = getelementptr inbounds nuw i8, ptr %27, i64 1073741824
  store ptr %28, ptr %6, align 8, !tbaa !8
  br label %9, !llvm.loop !14

29:                                               ; preds = %9
  %30 = load i64, ptr %8, align 8, !tbaa !12
  %31 = icmp ne i64 %30, 0
  br i1 %31, label %32, label %44

32:                                               ; preds = %29
  %33 = load ptr, ptr %7, align 8, !tbaa !8
  %34 = load ptr, ptr %6, align 8, !tbaa !8
  %35 = load i64, ptr %8, align 8, !tbaa !12
  %36 = load ptr, ptr %5, align 8, !tbaa !3
  %37 = call ptr @EVP_CIPHER_CTX_get_cipher_data(ptr noundef %36)
  %38 = getelementptr inbounds nuw %struct.EVP_ARIA_KEY, ptr %37, i32 0, i32 0
  %39 = load ptr, ptr %5, align 8, !tbaa !3
  %40 = getelementptr inbounds nuw %struct.evp_cipher_ctx_st, ptr %39, i32 0, i32 5
  %41 = getelementptr inbounds [16 x i8], ptr %40, i64 0, i64 0
  %42 = load ptr, ptr %5, align 8, !tbaa !3
  %43 = call i32 @EVP_CIPHER_CTX_is_encrypting(ptr noundef %42)
  call void @aria_cbc_encrypt(ptr noundef %33, ptr noundef %34, i64 noundef %35, ptr noundef %38, ptr noundef %41, i32 noundef %43)
  br label %44

44:                                               ; preds = %32, %29
  ret i32 1
}