; Function Attrs: nounwind uwtable
define internal noundef i32 @aria_128_cbc_cipher(ptr noundef %0, ptr noundef %1, ptr noundef %2, i64 noundef %3) #1 {
  %5 = icmp ugt i64 %3, 1073741823
  br i1 %5, label %.lr.ph, label %._crit_edge

.lr.ph:                                           ; preds = %4
  %6 = getelementptr inbounds nuw i8, ptr %0, i64 40
  br label %7

7:                                                ; preds = %.lr.ph, %aria_cbc_encrypt.exit
  %.021 = phi i64 [ %3, %.lr.ph ], [ %12, %aria_cbc_encrypt.exit ]
  %.01520 = phi ptr [ %2, %.lr.ph ], [ %13, %aria_cbc_encrypt.exit ]
  %.01619 = phi ptr [ %1, %.lr.ph ], [ %14, %aria_cbc_encrypt.exit ]
  %8 = tail call ptr @EVP_CIPHER_CTX_get_cipher_data(ptr noundef %0) #6
  %9 = tail call i32 @EVP_CIPHER_CTX_is_encrypting(ptr noundef %0) #6
  %.not.i = icmp eq i32 %9, 0
  br i1 %.not.i, label %11, label %10

10:                                               ; preds = %7
  tail call void @CRYPTO_cbc128_encrypt(ptr noundef %.01520, ptr noundef %.01619, i64 noundef 1073741824, ptr noundef %8, ptr noundef nonnull %6, ptr noundef nonnull @ossl_aria_encrypt) #6
  br label %aria_cbc_encrypt.exit

11:                                               ; preds = %7
  tail call void @CRYPTO_cbc128_decrypt(ptr noundef %.01520, ptr noundef %.01619, i64 noundef 1073741824, ptr noundef %8, ptr noundef nonnull %6, ptr noundef nonnull @ossl_aria_encrypt) #6
  br label %aria_cbc_encrypt.exit

aria_cbc_encrypt.exit:                            ; preds = %10, %11
  %12 = add i64 %.021, -1073741824
  %13 = getelementptr inbounds nuw i8, ptr %.01520, i64 1073741824
  %14 = getelementptr inbounds nuw i8, ptr %.01619, i64 1073741824
  %15 = icmp ugt i64 %12, 1073741823
  br i1 %15, label %7, label %._crit_edge, !llvm.loop !3

._crit_edge:                                      ; preds = %aria_cbc_encrypt.exit, %4
  %.016.lcssa = phi ptr [ %1, %4 ], [ %14, %aria_cbc_encrypt.exit ]
  %.015.lcssa = phi ptr [ %2, %4 ], [ %13, %aria_cbc_encrypt.exit ]
  %.0.lcssa = phi i64 [ %3, %4 ], [ %12, %aria_cbc_encrypt.exit ]
  %.not = icmp eq i64 %.0.lcssa, 0
  br i1 %.not, label %aria_cbc_encrypt.exit18, label %16

16:                                               ; preds = %._crit_edge
  %17 = tail call ptr @EVP_CIPHER_CTX_get_cipher_data(ptr noundef %0) #6
  %18 = getelementptr inbounds nuw i8, ptr %0, i64 40
  %19 = tail call i32 @EVP_CIPHER_CTX_is_encrypting(ptr noundef %0) #6
  %.not.i17 = icmp eq i32 %19, 0
  br i1 %.not.i17, label %21, label %20

20:                                               ; preds = %16
  tail call void @CRYPTO_cbc128_encrypt(ptr noundef %.015.lcssa, ptr noundef %.016.lcssa, i64 noundef range(i64 1, 1073741825) %.0.lcssa, ptr noundef %17, ptr noundef nonnull %18, ptr noundef nonnull @ossl_aria_encrypt) #6
  br label %aria_cbc_encrypt.exit18

21:                                               ; preds = %16
  tail call void @CRYPTO_cbc128_decrypt(ptr noundef %.015.lcssa, ptr noundef %.016.lcssa, i64 noundef range(i64 1, 1073741825) %.0.lcssa, ptr noundef %17, ptr noundef nonnull %18, ptr noundef nonnull @ossl_aria_encrypt) #6
  br label %aria_cbc_encrypt.exit18

aria_cbc_encrypt.exit18:                          ; preds = %21, %20, %._crit_edge
  ret i32 1
}